target datalayout = "e-m:e-p270:32:32-p271:32:32-p272:64:64-i64:64-i128:128-f80:128-n8:16:32:64-S128"
target triple = "x86_64-pc-linux-gnu"

%struct.AVCodecContext = type { ptr, i32, i32, ptr, i32, i32, ptr, ptr, ptr, i64, i32, i32, ptr, i32, %struct.AVRational, %struct.AVRational, %struct.AVRational, i32, i32, i32, i32, i32, %struct.AVRational, i32, i32, i32, i32, i32, i32, i32, i32, i32, i32, i32, ptr, ptr, i32, float, float, float, float, float, float, float, float, float, i32, i32, i32, i32, i32, i32, i32, i32, i32, i32, i32, i32, ptr, ptr, ptr, i32, i32, i32, i32, i32, i32, i32, i32, i32, i32, %struct.AVChannelLayout, i32, i32, i32, i32, i32, i32, i32, i32, ptr, i32, i32, i32, float, float, i32, i32, i32, i32, i32, ptr, i64, i64, float, float, i32, i32, ptr, ptr, i32, i32, i32, i32, i32, ptr, ptr, ptr, ptr, i32, i32, [8 x i64], i32, i32, i32, i32, i32, i32, i32, ptr, ptr, i32, i32, i32, i32, i32, i32, i32, i32, i32, i32, ptr, ptr, i32, i32, ptr, ptr, ptr, ptr, i32, i32, i64, i32, i32, i64, ptr, i64, ptr, i32, ptr, i32 }
%struct.AVRational = type { i32, i32 }
%struct.AVChannelLayout = type { i32, i32, %union.anon.0, ptr }
%union.anon.0 = type { i64 }
%struct.DiracContext = type { ptr, %struct.MpegvideoEncDSPContext, %struct.VideoDSPContext, %struct.DiracDSPContext, %struct.DiracVersionInfo, %struct.GetBitContext, %struct.AVDiracSeqHeader, i32, i64, [3 x %struct.Plane], i32, i32, i32, i32, i32, i32, i32, i32, i32, i32, i32, i32, i32, i32, i32, i32, i32, i32, i32, ptr, i32, i32, ptr, i32, [6 x %struct.anon], %struct.anon.1, %struct.anon.2, [2 x %struct.anon.3], i8, [2 x i16], i32, i32, i32, i32, i32, ptr, ptr, [4 x ptr], ptr, ptr, ptr, i32, [12 x i8], [3 x [1024 x i8]], [4 x ptr], [4 x ptr], ptr, ptr, ptr, ptr, [2 x ptr], [9 x ptr], [6 x ptr], [14 x %struct.DiracFrame], [8 x i8] }
%struct.MpegvideoEncDSPContext = type { ptr, ptr, ptr, ptr, [4 x ptr], ptr }
%struct.VideoDSPContext = type { ptr, ptr }
%struct.DiracDSPContext = type { ptr, [3 x [4 x ptr]], [3 x [4 x ptr]], [3 x ptr], ptr, ptr, [3 x ptr], [4 x ptr], [3 x ptr], [3 x ptr] }
%struct.DiracVersionInfo = type { i32, i32 }
%struct.GetBitContext = type { ptr, ptr, i32, i32, i32 }
%struct.AVDiracSeqHeader = type { i32, i32, i8, i8, i8, i8, i8, i16, i16, i16, i16, i8, i8, i32, i32, %struct.AVRational, %struct.AVRational, i32, i32, i32, i32, i32, %struct.DiracVersionInfo, i32 }
%struct.Plane = type { %struct.DWTPlane, i32, i32, i64, i8, i8, i8, i8, i8, i8, [5 x [4 x %struct.SubBand]] }
%struct.DWTPlane = type { i32, i32, i32, ptr, ptr, ptr }
%struct.SubBand = type { i32, i32, i32, i32, i32, i32, i32, ptr, ptr, i32, ptr }
%struct.anon = type { i32, i32 }
%struct.anon.1 = type { %struct.AVRational, [5 x [4 x i8]] }
%struct.anon.2 = type { i32, i64 }
%struct.anon.3 = type { [2 x i32], [2 x [2 x i32]], [2 x i32], i32, i32 }
%struct.DiracFrame = type { ptr, [3 x i32], [3 x [4 x ptr]], [3 x [4 x ptr]], i32, i32 }

@dirac_arith_init = internal global i32 0, align 4

; Function Attrs: cold nounwind optsize uwtable
define internal i32 @dirac_decode_init(ptr noundef %0) #0 {
  %2 = alloca i32, align 4
  %3 = alloca ptr, align 8
  %4 = alloca ptr, align 8
  %5 = alloca i32, align 4
  %6 = alloca i32, align 4
  %7 = alloca i32, align 4
  store ptr %0, ptr %3, align 8, !tbaa !4
  call void @llvm.lifetime.start.p0(i64 8, ptr %4) #12
  %8 = load ptr, ptr %3, align 8, !tbaa !4
  %9 = getelementptr inbounds nuw %struct.AVCodecContext, ptr %8, i32 0, i32 6
  %10 = load ptr, ptr %9, align 8, !tbaa !9
  store ptr %10, ptr %4, align 8, !tbaa !29
  call void @llvm.lifetime.start.p0(i64 4, ptr %5) #12
  call void @llvm.lifetime.start.p0(i64 4, ptr %6) #12
  %11 = load ptr, ptr %3, align 8, !tbaa !4
  %12 = load ptr, ptr %4, align 8, !tbaa !29
  %13 = getelementptr inbounds nuw %struct.DiracContext, ptr %12, i32 0, i32 0
  store ptr %11, ptr %13, align 16, !tbaa !31
  %14 = load ptr, ptr %4, align 8, !tbaa !29
  %15 = getelementptr inbounds nuw %struct.DiracContext, ptr %14, i32 0, i32 8
  store i64 -1, ptr %15, align 8, !tbaa !43
  %16 = load ptr, ptr %4, align 8, !tbaa !29
  %17 = getelementptr inbounds nuw %struct.DiracContext, ptr %16, i32 0, i32 29
  store ptr null, ptr %17, align 16, !tbaa !44
  %18 = load ptr, ptr %4, align 8, !tbaa !29
  %19 = getelementptr inbounds nuw %struct.DiracContext, ptr %18, i32 0, i32 30
  store i32 -1, ptr %19, align 8, !tbaa !45
  %20 = load ptr, ptr %4, align 8, !tbaa !29
  %21 = getelementptr inbounds nuw %struct.DiracContext, ptr %20, i32 0, i32 31
  store i32 -1, ptr %21, align 4, !tbaa !46
  %22 = load ptr, ptr %4, align 8, !tbaa !29
  %23 = getelementptr inbounds nuw %struct.DiracContext, ptr %22, i32 0, i32 3
  call void @ff_diracdsp_init(ptr noundef %23)
  %24 = load ptr, ptr %4, align 8, !tbaa !29
  %25 = getelementptr inbounds nuw %struct.DiracContext, ptr %24, i32 0, i32 1
  %26 = load ptr, ptr %3, align 8, !tbaa !4
  call void @ff_mpegvideoencdsp_init(ptr noundef %25, ptr noundef %26)
  %27 = load ptr, ptr %4, align 8, !tbaa !29
  %28 = getelementptr inbounds nuw %struct.DiracContext, ptr %27, i32 0, i32 2
  call void @ff_videodsp_init(ptr noundef %28, i32 noundef 8)
  store i32 0, ptr %5, align 4, !tbaa !47
  br label %29

29:                                               ; preds = %50, %1
  %30 = load i32, ptr %5, align 4, !tbaa !47
  %31 = icmp slt i32 %30, 14
  br i1 %31, label %32, label %53

32:                                               ; preds = %29
  %33 = call ptr @av_frame_alloc()
  %34 = load ptr, ptr %4, align 8, !tbaa !29
  %35 = getelementptr inbounds nuw %struct.DiracContext, ptr %34, i32 0, i32 63
  %36 = load i32, ptr %5, align 4, !tbaa !47
  %37 = sext i32 %36 to i64
  %38 = getelementptr inbounds [14 x %struct.DiracFrame], ptr %35, i64 0, i64 %37
  %39 = getelementptr inbounds nuw %struct.DiracFrame, ptr %38, i32 0, i32 0
  store ptr %33, ptr %39, align 8, !tbaa !48
  %40 = load ptr, ptr %4, align 8, !tbaa !29
  %41 = getelementptr inbounds nuw %struct.DiracContext, ptr %40, i32 0, i32 63
  %42 = load i32, ptr %5, align 4, !tbaa !47
  %43 = sext i32 %42 to i64
  %44 = getelementptr inbounds [14 x %struct.DiracFrame], ptr %41, i64 0, i64 %43
  %45 = getelementptr inbounds nuw %struct.DiracFrame, ptr %44, i32 0, i32 0
  %46 = load ptr, ptr %45, align 8, !tbaa !48
  %47 = icmp ne ptr %46, null
  br i1 %47, label %49, label %48

48:                                               ; preds = %32
  store i32 -12, ptr %2, align 4
  store i32 1, ptr %7, align 4
  br label %59

49:                                               ; preds = %32
  br label %50

50:                                               ; preds = %49
  %51 = load i32, ptr %5, align 4, !tbaa !47
  %52 = add nsw i32 %51, 1
  store i32 %52, ptr %5, align 4, !tbaa !47
  br label %29, !llvm.loop !51

53:                                               ; preds = %29
  %54 = call i32 @pthread_once(ptr noundef @dirac_arith_init, ptr noundef @ff_dirac_init_arith_tables)
  store i32 %54, ptr %6, align 4, !tbaa !47
  %55 = load i32, ptr %6, align 4, !tbaa !47
  %56 = icmp ne i32 %55, 0
  br i1 %56, label %57, label %58

57:                                               ; preds = %53
  store i32 -1313558101, ptr %2, align 4
  store i32 1, ptr %7, align 4
  br label %59

58:                                               ; preds = %53
  store i32 0, ptr %2, align 4
  store i32 1, ptr %7, align 4
  br label %59

59:                                               ; preds = %58, %57, %48
  call void @llvm.lifetime.end.p0(i64 4, ptr %6) #12
  call void @llvm.lifetime.end.p0(i64 4, ptr %5) #12
  call void @llvm.lifetime.end.p0(i64 8, ptr %4) #12
  %60 = load i32, ptr %2, align 4
  ret i32 %60
}