; Function Attrs: cold nounwind optsize uwtable
define internal range(i32 -1313558101, 1) i32 @dirac_decode_init(ptr noundef %0) #0 {
  %2 = getelementptr inbounds nuw i8, ptr %0, i64 32
  %3 = load ptr, ptr %2, align 8, !tbaa !4
  store ptr %0, ptr %3, align 16, !tbaa !27
  %4 = getelementptr inbounds nuw i8, ptr %3, i64 568
  store i64 -1, ptr %4, align 8, !tbaa !40
  %5 = getelementptr inbounds nuw i8, ptr %3, i64 4688
  store ptr null, ptr %5, align 16, !tbaa !41
  %6 = getelementptr inbounds nuw i8, ptr %3, i64 4696
  store i32 -1, ptr %6, align 8, !tbaa !42
  %7 = getelementptr inbounds nuw i8, ptr %3, i64 4700
  store i32 -1, ptr %7, align 4, !tbaa !43
  %8 = getelementptr inbounds nuw i8, ptr %3, i64 96
  tail call void @ff_diracdsp_init(ptr noundef nonnull %8) #13
  %9 = getelementptr inbounds nuw i8, ptr %3, i64 8
  tail call void @ff_mpegvideoencdsp_init(ptr noundef nonnull %9, ptr noundef %0) #13
  %10 = getelementptr inbounds nuw i8, ptr %3, i64 80
  tail call void @ff_videodsp_init(ptr noundef nonnull %10, i32 noundef 8) #13
  %11 = getelementptr inbounds nuw i8, ptr %3, i64 8312
  br label %13

12:                                               ; preds = %13
  %indvars.iv.next = add nuw nsw i64 %indvars.iv, 1
  %exitcond.not = icmp eq i64 %indvars.iv.next, 14
  br i1 %exitcond.not, label %16, label %13, !llvm.loop !44

13:                                               ; preds = %1, %12
  %indvars.iv = phi i64 [ 0, %1 ], [ %indvars.iv.next, %12 ]
  %14 = tail call ptr @av_frame_alloc() #13
  %15 = getelementptr inbounds nuw [14 x %struct.DiracFrame], ptr %11, i64 0, i64 %indvars.iv
  store ptr %14, ptr %15, align 8, !tbaa !46
  %.not19 = icmp eq ptr %14, null
  br i1 %.not19, label %.loopexit, label %12

16:                                               ; preds = %12
  %17 = tail call i32 @pthread_once(ptr noundef nonnull @dirac_arith_init, ptr noundef nonnull @ff_dirac_init_arith_tables) #13
  %.not = icmp eq i32 %17, 0
  %. = select i1 %.not, i32 0, i32 -1313558101
  br label %.loopexit

.loopexit:                                        ; preds = %13, %16
  %.0 = phi i32 [ %., %16 ], [ -12, %13 ]
  ret i32 %.0
}